; Function Attrs: mustprogress uwtable
define void @_ZN7Imf_3_219TiledRgbaOutputFile9writeTileEiii(ptr nocapture noundef nonnull readonly align 8 dereferenceable(24) %this, i32 noundef %dx, i32 noundef %dy, i32 noundef %l) local_unnamed_addr #3 align 2 {
entry:
  %_toYa = getelementptr inbounds i8, ptr %this, i64 16
  %0 = load ptr, ptr %_toYa, align 8
  %tobool.not = icmp eq ptr %0, null
  br i1 %tobool.not, label %if.else, label %if.then

if.then:                                          ; preds = %entry
  tail call void @_ZN7Imf_3_219TiledRgbaOutputFile4ToYa9writeTileEiiii(ptr noundef nonnull align 8 dereferenceable(80) %0, i32 noundef %dx, i32 noundef %dy, i32 noundef %l, i32 noundef %l)
  br label %if.end

if.else:                                          ; preds = %entry
  %_outputFile = getelementptr inbounds i8, ptr %this, i64 8
  %1 = load ptr, ptr %_outputFile, align 8
  tail call void @_ZN7Imf_3_215TiledOutputFile9writeTileEiii(ptr noundef nonnull align 8 dereferenceable(25) %1, i32 noundef %dx, i32 noundef %dy, i32 noundef %l)
  br label %if.end

if.end:                                           ; preds = %if.else, %if.then
  ret void
}